target datalayout = "e-m:e-p270:32:32-p271:32:32-p272:64:64-i64:64-i128:128-f80:128-n8:16:32:64-S128"
target triple = "x86_64-pc-linux-gnu"

%"struct.icu_77::CollationData" = type <{ ptr, ptr, ptr, ptr, ptr, ptr, ptr, i32, i32, i32, i32, ptr, ptr, ptr, i32, i32, ptr, ptr, i32, [4 x i8], ptr, i32, [4 x i8] }>
%"class.icu_77::UCharsTrie" = type <{ ptr, ptr, ptr, i32, [4 x i8] }>
%"class.icu_77::ConstChar16Ptr" = type { ptr }

; Function Attrs: inlinehint mustprogress nounwind uwtable
define linkonce_odr noundef ptr @_ZNK6icu_7714ConstChar16Ptr3getEv(ptr noundef nonnull align 8 dereferenceable(8) %0) #2 comdat align 2 {
  %2 = alloca ptr, align 8
  store ptr %0, ptr %2, align 8, !tbaa !104
  %3 = load ptr, ptr %2, align 8
  %4 = getelementptr inbounds nuw %"class.icu_77::ConstChar16Ptr", ptr %3, i32 0, i32 0
  %5 = load ptr, ptr %4, align 8, !tbaa !106
  ret ptr %5
}

; Function Attrs: inlinehint mustprogress nounwind uwtable
define linkonce_odr noundef i32 @_ZN6icu_7710UCharsTrie13readNodeValueEPKDsi(ptr noundef %0, i32 noundef %1) #2 comdat align 2 {
  %3 = alloca ptr, align 8
  %4 = alloca i32, align 4
  %5 = alloca i32, align 4
  store ptr %0, ptr %3, align 8, !tbaa !90
  store i32 %1, ptr %4, align 4, !tbaa !14
  call void @llvm.lifetime.start.p0(i64 4, ptr %5) #11
  %6 = load i32, ptr %4, align 4, !tbaa !14
  %7 = icmp slt i32 %6, 16448
  br i1 %7, label %8, label %12

8:                                                ; preds = %2
  %9 = load i32, ptr %4, align 4, !tbaa !14
  %10 = ashr i32 %9, 6
  %11 = sub nsw i32 %10, 1
  store i32 %11, ptr %5, align 4, !tbaa !14
  br label %36

12:                                               ; preds = %2
  %13 = load i32, ptr %4, align 4, !tbaa !14
  %14 = icmp slt i32 %13, 32704
  br i1 %14, label %15, label %24

15:                                               ; preds = %12
  %16 = load i32, ptr %4, align 4, !tbaa !14
  %17 = and i32 %16, 32704
  %18 = sub nsw i32 %17, 16448
  %19 = shl i32 %18, 10
  %20 = load ptr, ptr %3, align 8, !tbaa !90
  %21 = load i16, ptr %20, align 2, !tbaa !92
  %22 = zext i16 %21 to i32
  %23 = or i32 %19, %22
  store i32 %23, ptr %5, align 4, !tbaa !14
  br label %35

24:                                               ; preds = %12
  %25 = load ptr, ptr %3, align 8, !tbaa !90
  %26 = getelementptr inbounds i16, ptr %25, i64 0
  %27 = load i16, ptr %26, align 2, !tbaa !92
  %28 = zext i16 %27 to i32
  %29 = shl i32 %28, 16
  %30 = load ptr, ptr %3, align 8, !tbaa !90
  %31 = getelementptr inbounds i16, ptr %30, i64 1
  %32 = load i16, ptr %31, align 2, !tbaa !92
  %33 = zext i16 %32 to i32
  %34 = or i32 %29, %33
  store i32 %34, ptr %5, align 4, !tbaa !14
  br label %35

35:                                               ; preds = %24, %15
  br label %36

36:                                               ; preds = %35, %8
  %37 = load i32, ptr %5, align 4, !tbaa !14
  call void @llvm.lifetime.end.p0(i64 4, ptr %5) #11
  ret i32 %37
}

; Function Attrs: inlinehint mustprogress nounwind uwtable
define linkonce_odr noundef i32 @_ZN6icu_7710UCharsTrie9readValueEPKDsi(ptr noundef %0, i32 noundef %1) #2 comdat align 2 {
  %3 = alloca ptr, align 8
  %4 = alloca i32, align 4
  %5 = alloca i32, align 4
  store ptr %0, ptr %3, align 8, !tbaa !90
  store i32 %1, ptr %4, align 4, !tbaa !14
  call void @llvm.lifetime.start.p0(i64 4, ptr %5) #11
  %6 = load i32, ptr %4, align 4, !tbaa !14
  %7 = icmp slt i32 %6, 16384
  br i1 %7, label %8, label %10

8:                                                ; preds = %2
  %9 = load i32, ptr %4, align 4, !tbaa !14
  store i32 %9, ptr %5, align 4, !tbaa !14
  br label %33

10:                                               ; preds = %2
  %11 = load i32, ptr %4, align 4, !tbaa !14
  %12 = icmp slt i32 %11, 32767
  br i1 %12, label %13, label %21

13:                                               ; preds = %10
  %14 = load i32, ptr %4, align 4, !tbaa !14
  %15 = sub nsw i32 %14, 16384
  %16 = shl i32 %15, 16
  %17 = load ptr, ptr %3, align 8, !tbaa !90
  %18 = load i16, ptr %17, align 2, !tbaa !92
  %19 = zext i16 %18 to i32
  %20 = or i32 %16, %19
  store i32 %20, ptr %5, align 4, !tbaa !14
  br label %32

21:                                               ; preds = %10
  %22 = load ptr, ptr %3, align 8, !tbaa !90
  %23 = getelementptr inbounds i16, ptr %22, i64 0
  %24 = load i16, ptr %23, align 2, !tbaa !92
  %25 = zext i16 %24 to i32
  %26 = shl i32 %25, 16
  %27 = load ptr, ptr %3, align 8, !tbaa !90
  %28 = getelementptr inbounds i16, ptr %27, i64 1
  %29 = load i16, ptr %28, align 2, !tbaa !92
  %30 = zext i16 %29 to i32
  %31 = or i32 %26, %30
  store i32 %31, ptr %5, align 4, !tbaa !14
  br label %32

32:                                               ; preds = %21, %13
  br label %33

33:                                               ; preds = %32, %8
  %34 = load i32, ptr %5, align 4, !tbaa !14
  call void @llvm.lifetime.end.p0(i64 4, ptr %5) #11
  ret i32 %34
}

; Function Attrs: inlinehint mustprogress uwtable
define linkonce_odr noundef ptr @_ZNK6icu_7714ConstChar16PtrcvPKDsEv(ptr noundef nonnull align 8 dereferenceable(8) %0) #3 comdat align 2 {
  %2 = alloca ptr, align 8
  store ptr %0, ptr %2, align 8, !tbaa !104
  %3 = load ptr, ptr %2, align 8
  %4 = call noundef ptr @_ZNK6icu_7714ConstChar16Ptr3getEv(ptr noundef nonnull align 8 dereferenceable(8) %3)
  ret ptr %4
}

; Function Attrs: inlinehint mustprogress uwtable
define linkonce_odr noundef i32 @_ZNK6icu_7710UCharsTrie8getValueEv(ptr noundef nonnull align 8 dereferenceable(28) %0) #3 comdat align 2 {
  %2 = alloca ptr, align 8
  %3 = alloca ptr, align 8
  %4 = alloca i32, align 4
  store ptr %0, ptr %2, align 8, !tbaa !108
  %5 = load ptr, ptr %2, align 8
  call void @llvm.lifetime.start.p0(i64 8, ptr %3) #11
  %6 = getelementptr inbounds nuw %"class.icu_77::UCharsTrie", ptr %5, i32 0, i32 2
  %7 = load ptr, ptr %6, align 8, !tbaa !113
  store ptr %7, ptr %3, align 8, !tbaa !90
  call void @llvm.lifetime.start.p0(i64 4, ptr %4) #11
  %8 = load ptr, ptr %3, align 8, !tbaa !90
  %9 = getelementptr inbounds nuw i16, ptr %8, i32 1
  store ptr %9, ptr %3, align 8, !tbaa !90
  %10 = load i16, ptr %8, align 2, !tbaa !92
  %11 = zext i16 %10 to i32
  store i32 %11, ptr %4, align 4, !tbaa !14
  %12 = load i32, ptr %4, align 4, !tbaa !14
  %13 = and i32 %12, 32768
  %14 = icmp ne i32 %13, 0
  br i1 %14, label %15, label %20

15:                                               ; preds = %1
  %16 = load ptr, ptr %3, align 8, !tbaa !90
  %17 = load i32, ptr %4, align 4, !tbaa !14
  %18 = and i32 %17, 32767
  %19 = call noundef i32 @_ZN6icu_7710UCharsTrie9readValueEPKDsi(ptr noundef %16, i32 noundef %18)
  br label %24

20:                                               ; preds = %1
  %21 = load ptr, ptr %3, align 8, !tbaa !90
  %22 = load i32, ptr %4, align 4, !tbaa !14
  %23 = call noundef i32 @_ZN6icu_7710UCharsTrie13readNodeValueEPKDsi(ptr noundef %21, i32 noundef %22)
  br label %24

24:                                               ; preds = %20, %15
  %25 = phi i32 [ %19, %15 ], [ %23, %20 ]
  call void @llvm.lifetime.end.p0(i64 4, ptr %4) #11
  call void @llvm.lifetime.end.p0(i64 8, ptr %3) #11
  ret i32 %25
}

; Function Attrs: inlinehint mustprogress nounwind uwtable
define linkonce_odr void @_ZN6icu_7714ConstChar16PtrD2Ev(ptr noundef nonnull align 8 dereferenceable(8) %0) unnamed_addr #2 comdat align 2 {
  %2 = alloca ptr, align 8
  store ptr %0, ptr %2, align 8, !tbaa !104
  %3 = load ptr, ptr %2, align 8
  %4 = getelementptr inbounds nuw %"class.icu_77::ConstChar16Ptr", ptr %3, i32 0, i32 0
  %5 = load ptr, ptr %4, align 8, !tbaa !106
  call void asm sideeffect "", "rm,~{memory},~{dirflag},~{fpsr},~{flags}"(ptr %5) #11, !srcloc !115
  ret void
}

; Function Attrs: mustprogress uwtable
define linkonce_odr void @_ZN6icu_7710UCharsTrieC2ENS_14ConstChar16PtrE(ptr noundef nonnull align 8 dereferenceable(28) %0, ptr noundef %1) unnamed_addr #1 comdat align 2 {
  %3 = alloca ptr, align 8
  %4 = alloca ptr, align 8
  store ptr %0, ptr %3, align 8, !tbaa !108
  store ptr %1, ptr %4, align 8, !tbaa !104
  %5 = load ptr, ptr %3, align 8
  %6 = getelementptr inbounds nuw %"class.icu_77::UCharsTrie", ptr %5, i32 0, i32 0
  store ptr null, ptr %6, align 8, !tbaa !110
  %7 = getelementptr inbounds nuw %"class.icu_77::UCharsTrie", ptr %5, i32 0, i32 1
  %8 = call noundef ptr @_ZNK6icu_7714ConstChar16PtrcvPKDsEv(ptr noundef nonnull align 8 dereferenceable(8) %1)
  store ptr %8, ptr %7, align 8, !tbaa !112
  %9 = getelementptr inbounds nuw %"class.icu_77::UCharsTrie", ptr %5, i32 0, i32 2
  %10 = getelementptr inbounds nuw %"class.icu_77::UCharsTrie", ptr %5, i32 0, i32 1
  %11 = load ptr, ptr %10, align 8, !tbaa !112
  store ptr %11, ptr %9, align 8, !tbaa !113
  %12 = getelementptr inbounds nuw %"class.icu_77::UCharsTrie", ptr %5, i32 0, i32 3
  store i32 -1, ptr %12, align 8, !tbaa !114
  ret void
}

; Function Attrs: inlinehint mustprogress nounwind uwtable
define linkonce_odr void @_ZN6icu_7714ConstChar16PtrC2EPKDs(ptr noundef nonnull align 8 dereferenceable(8) %0, ptr noundef %1) unnamed_addr #2 comdat align 2 {
  %3 = alloca ptr, align 8
  %4 = alloca ptr, align 8
  store ptr %0, ptr %3, align 8, !tbaa !104
  store ptr %1, ptr %4, align 8, !tbaa !90
  %5 = load ptr, ptr %3, align 8
  %6 = getelementptr inbounds nuw %"class.icu_77::ConstChar16Ptr", ptr %5, i32 0, i32 0
  %7 = load ptr, ptr %4, align 8, !tbaa !90
  store ptr %7, ptr %6, align 8, !tbaa !106
  ret void
}

; Function Attrs: mustprogress nounwind uwtable
define linkonce_odr noundef i32 @_ZN6icu_7713CollationData8readCE32EPKDs(ptr noundef %0) #0 comdat align 2 {
  %2 = alloca ptr, align 8
  store ptr %0, ptr %2, align 8, !tbaa !90
  %3 = load ptr, ptr %2, align 8, !tbaa !90
  %4 = getelementptr inbounds i16, ptr %3, i64 0
  %5 = load i16, ptr %4, align 2, !tbaa !92
  %6 = zext i16 %5 to i32
  %7 = shl i32 %6, 16
  %8 = load ptr, ptr %2, align 8, !tbaa !90
  %9 = getelementptr inbounds i16, ptr %8, i64 1
  %10 = load i16, ptr %9, align 2, !tbaa !92
  %11 = zext i16 %10 to i32
  %12 = or i32 %7, %11
  ret i32 %12
}

; Function Attrs: inlinehint mustprogress nounwind uwtable
define linkonce_odr noundef i32 @_ZN6icu_779Collation13indexFromCE32Ej(i32 noundef %0) #2 comdat align 2 {
  %2 = alloca i32, align 4
  store i32 %0, ptr %2, align 4, !tbaa !14
  %3 = load i32, ptr %2, align 4, !tbaa !14
  %4 = lshr i32 %3, 13
  ret i32 %4
}

; Function Attrs: mustprogress uwtable
define noundef i32 @_ZN6icu_7717CollationIterator17getCE32FromPrefixEPKNS_13CollationDataEjR10UErrorCode(ptr noundef nonnull align 8 dereferenceable(389) %0, ptr noundef %1, i32 noundef %2, ptr noundef nonnull align 4 dereferenceable(4) %3) #1 align 2 personality ptr @__gxx_personality_v0 {
  %5 = alloca ptr, align 8
  %6 = alloca ptr, align 8
  %7 = alloca i32, align 4
  %8 = alloca ptr, align 8
  %9 = alloca ptr, align 8
  %10 = alloca i32, align 4
  %11 = alloca %"class.icu_77::UCharsTrie", align 8
  %12 = alloca %"class.icu_77::ConstChar16Ptr", align 8
  %13 = alloca ptr, align 8
  %14 = alloca i32, align 4
  %15 = alloca i32, align 4
  %16 = alloca i32, align 4
  %17 = alloca i32, align 4
  store ptr %0, ptr %5, align 8, !tbaa !37
  store ptr %1, ptr %6, align 8, !tbaa !75
  store i32 %2, ptr %7, align 4, !tbaa !14
  store ptr %3, ptr %8, align 8, !tbaa !22
  %18 = load ptr, ptr %5, align 8
  call void @llvm.lifetime.start.p0(i64 8, ptr %9) #11
  %19 = load ptr, ptr %6, align 8, !tbaa !75
  %20 = getelementptr inbounds nuw %"struct.icu_77::CollationData", ptr %19, i32 0, i32 3
  %21 = load ptr, ptr %20, align 8, !tbaa !89
  %22 = load i32, ptr %7, align 4, !tbaa !14
  %23 = call noundef i32 @_ZN6icu_779Collation13indexFromCE32Ej(i32 noundef %22)
  %24 = sext i32 %23 to i64
  %25 = getelementptr inbounds i16, ptr %21, i64 %24
  store ptr %25, ptr %9, align 8, !tbaa !90
  %26 = load ptr, ptr %9, align 8, !tbaa !90
  %27 = call noundef i32 @_ZN6icu_7713CollationData8readCE32EPKDs(ptr noundef %26)
  store i32 %27, ptr %7, align 4, !tbaa !14
  %28 = load ptr, ptr %9, align 8, !tbaa !90
  %29 = getelementptr inbounds i16, ptr %28, i64 2
  store ptr %29, ptr %9, align 8, !tbaa !90
  call void @llvm.lifetime.start.p0(i64 4, ptr %10) #11
  store i32 0, ptr %10, align 4, !tbaa !14
  call void @llvm.lifetime.start.p0(i64 32, ptr %11) #11
  %30 = load ptr, ptr %9, align 8, !tbaa !90
  call void @_ZN6icu_7714ConstChar16PtrC2EPKDs(ptr noundef nonnull align 8 dereferenceable(8) %12, ptr noundef %30)
  invoke void @_ZN6icu_7710UCharsTrieC2ENS_14ConstChar16PtrE(ptr noundef nonnull align 8 dereferenceable(28) %11, ptr noundef %12)
          to label %31 unwind label %42

31:                                               ; preds = %4
  call void @_ZN6icu_7714ConstChar16PtrD2Ev(ptr noundef nonnull align 8 dereferenceable(8) %12) #11
  br label %32

32:                                               ; preds = %74, %31
  call void @llvm.lifetime.start.p0(i64 4, ptr %15) #11
  %33 = load ptr, ptr %8, align 8, !tbaa !22
  %34 = load ptr, ptr %18, align 8, !tbaa !39
  %35 = getelementptr inbounds ptr, ptr %34, i64 7
  %36 = load ptr, ptr %35, align 8
  %37 = invoke noundef i32 %36(ptr noundef nonnull align 8 dereferenceable(389) %18, ptr noundef nonnull align 4 dereferenceable(4) %33)
          to label %38 unwind label %46

38:                                               ; preds = %32
  store i32 %37, ptr %15, align 4, !tbaa !14
  %39 = load i32, ptr %15, align 4, !tbaa !14
  %40 = icmp slt i32 %39, 0
  br i1 %40, label %41, label %50

41:                                               ; preds = %38
  store i32 2, ptr %16, align 4
  br label %72

42:                                               ; preds = %4
  %43 = landingpad { ptr, i32 }
          cleanup
  %44 = extractvalue { ptr, i32 } %43, 0
  store ptr %44, ptr %13, align 8
  %45 = extractvalue { ptr, i32 } %43, 1
  store i32 %45, ptr %14, align 4
  call void @_ZN6icu_7714ConstChar16PtrD2Ev(ptr noundef nonnull align 8 dereferenceable(8) %12) #11
  br label %89

46:                                               ; preds = %32
  %47 = landingpad { ptr, i32 }
          cleanup
  %48 = extractvalue { ptr, i32 } %47, 0
  store ptr %48, ptr %13, align 8
  %49 = extractvalue { ptr, i32 } %47, 1
  store i32 %49, ptr %14, align 4
  br label %75

50:                                               ; preds = %38
  %51 = load i32, ptr %10, align 4, !tbaa !14
  %52 = add nsw i32 %51, 1
  store i32 %52, ptr %10, align 4, !tbaa !14
  call void @llvm.lifetime.start.p0(i64 4, ptr %17) #11
  %53 = load i32, ptr %15, align 4, !tbaa !14
  %54 = invoke noundef i32 @_ZN6icu_7710UCharsTrie16nextForCodePointEi(ptr noundef nonnull align 8 dereferenceable(28) %11, i32 noundef %53)
          to label %55 unwind label %61

55:                                               ; preds = %50
  store i32 %54, ptr %17, align 4, !tbaa !95
  %56 = load i32, ptr %17, align 4, !tbaa !95
  %57 = icmp sge i32 %56, 2
  br i1 %57, label %58, label %65

58:                                               ; preds = %55
  %59 = invoke noundef i32 @_ZNK6icu_7710UCharsTrie8getValueEv(ptr noundef nonnull align 8 dereferenceable(28) %11)
          to label %60 unwind label %61

60:                                               ; preds = %58
  store i32 %59, ptr %7, align 4, !tbaa !14
  br label %65

61:                                               ; preds = %58, %50
  %62 = landingpad { ptr, i32 }
          cleanup
  %63 = extractvalue { ptr, i32 } %62, 0
  store ptr %63, ptr %13, align 8
  %64 = extractvalue { ptr, i32 } %62, 1
  store i32 %64, ptr %14, align 4
  call void @llvm.lifetime.end.p0(i64 4, ptr %17) #11
  br label %75

65:                                               ; preds = %60, %55
  %66 = load i32, ptr %17, align 4, !tbaa !95
  %67 = and i32 %66, 1
  %68 = icmp ne i32 %67, 0
  br i1 %68, label %70, label %69

69:                                               ; preds = %65
  store i32 2, ptr %16, align 4
  br label %71

70:                                               ; preds = %65
  store i32 0, ptr %16, align 4
  br label %71

71:                                               ; preds = %70, %69
  call void @llvm.lifetime.end.p0(i64 4, ptr %17) #11
  br label %72

72:                                               ; preds = %71, %41
  call void @llvm.lifetime.end.p0(i64 4, ptr %15) #11
  %73 = load i32, ptr %16, align 4
  switch i32 %73, label %95 [
    i32 0, label %74
    i32 2, label %76
  ]

74:                                               ; preds = %72
  br label %32, !llvm.loop !97

75:                                               ; preds = %61, %46
  call void @llvm.lifetime.end.p0(i64 4, ptr %15) #11
  br label %88

76:                                               ; preds = %72
  %77 = load i32, ptr %10, align 4, !tbaa !14
  %78 = load ptr, ptr %8, align 8, !tbaa !22
  %79 = load ptr, ptr %18, align 8, !tbaa !39
  %80 = getelementptr inbounds ptr, ptr %79, i64 12
  %81 = load ptr, ptr %80, align 8
  invoke void %81(ptr noundef nonnull align 8 dereferenceable(389) %18, i32 noundef %77, ptr noundef nonnull align 4 dereferenceable(4) %78)
          to label %82 unwind label %84

82:                                               ; preds = %76
  %83 = load i32, ptr %7, align 4, !tbaa !14
  store i32 1, ptr %16, align 4
  call void @_ZN6icu_7710UCharsTrieD1Ev(ptr noundef nonnull align 8 dereferenceable(28) %11) #11
  call void @llvm.lifetime.end.p0(i64 32, ptr %11) #11
  call void @llvm.lifetime.end.p0(i64 4, ptr %10) #11
  call void @llvm.lifetime.end.p0(i64 8, ptr %9) #11
  ret i32 %83

84:                                               ; preds = %76
  %85 = landingpad { ptr, i32 }
          cleanup
  %86 = extractvalue { ptr, i32 } %85, 0
  store ptr %86, ptr %13, align 8
  %87 = extractvalue { ptr, i32 } %85, 1
  store i32 %87, ptr %14, align 4
  br label %88

88:                                               ; preds = %84, %75
  call void @_ZN6icu_7710UCharsTrieD1Ev(ptr noundef nonnull align 8 dereferenceable(28) %11) #11
  br label %89

89:                                               ; preds = %88, %42
  call void @llvm.lifetime.end.p0(i64 32, ptr %11) #11
  call void @llvm.lifetime.end.p0(i64 4, ptr %10) #11
  call void @llvm.lifetime.end.p0(i64 8, ptr %9) #11
  br label %90

90:                                               ; preds = %89
  %91 = load ptr, ptr %13, align 8
  %92 = load i32, ptr %14, align 4
  %93 = insertvalue { ptr, i32 } poison, ptr %91, 0
  %94 = insertvalue { ptr, i32 } %93, i32 %92, 1
  resume { ptr, i32 } %94

95:                                               ; preds = %72
  unreachable
}