; Function Attrs: mustprogress uwtable
define noundef i32 @_ZN6icu_7717CollationIterator17getCE32FromPrefixEPKNS_13CollationDataEjR10UErrorCode(ptr noundef nonnull align 8 dereferenceable(389) %0, ptr noundef readonly captures(none) %1, i32 noundef %2, ptr noundef nonnull align 4 dereferenceable(4) %3) local_unnamed_addr #1 align 2 personality ptr @__gxx_personality_v0 {
  %5 = alloca %"class.icu_77::UCharsTrie", align 8
  %6 = getelementptr inbounds nuw i8, ptr %1, i64 24
  %7 = load ptr, ptr %6, align 8, !tbaa !71
  %8 = lshr i32 %2, 13
  %9 = zext nneg i32 %8 to i64
  %10 = getelementptr inbounds nuw i16, ptr %7, i64 %9
  %11 = load i16, ptr %10, align 2, !tbaa !72
  %12 = zext i16 %11 to i32
  %13 = shl nuw i32 %12, 16
  %14 = getelementptr inbounds nuw i8, ptr %10, i64 2
  %15 = load i16, ptr %14, align 2, !tbaa !72
  %16 = zext i16 %15 to i32
  %17 = or disjoint i32 %13, %16
  %18 = getelementptr inbounds nuw i8, ptr %10, i64 4
  call void @llvm.lifetime.start.p0(i64 32, ptr nonnull %5) #21
  store ptr null, ptr %5, align 8, !tbaa !76
  %19 = getelementptr inbounds nuw i8, ptr %5, i64 8
  store ptr %18, ptr %19, align 8, !tbaa !78
  %20 = getelementptr inbounds nuw i8, ptr %5, i64 16
  store ptr %18, ptr %20, align 8, !tbaa !79
  %21 = getelementptr inbounds nuw i8, ptr %5, i64 24
  store i32 -1, ptr %21, align 8, !tbaa !80
  tail call void asm sideeffect "", "rm,~{memory},~{dirflag},~{fpsr},~{flags}"(ptr nonnull %18) #21, !srcloc !81
  br label %22

22:                                               ; preds = %_ZNK6icu_7710UCharsTrie8getValueEv.exit, %4
  %.019 = phi i32 [ 0, %4 ], [ %32, %_ZNK6icu_7710UCharsTrie8getValueEv.exit ]
  %.0 = phi i32 [ %17, %4 ], [ %.2, %_ZNK6icu_7710UCharsTrie8getValueEv.exit ]
  %23 = load ptr, ptr %0, align 8, !tbaa !24
  %24 = getelementptr inbounds nuw i8, ptr %23, i64 56
  %25 = load ptr, ptr %24, align 8
  %26 = invoke noundef i32 %25(ptr noundef nonnull align 8 dereferenceable(389) %0, ptr noundef nonnull align 4 dereferenceable(4) %3)
          to label %27 unwind label %29

27:                                               ; preds = %22
  %28 = icmp slt i32 %26, 0
  br i1 %28, label %select.unfold, label %31

29:                                               ; preds = %22
  %30 = landingpad { ptr, i32 }
          cleanup
  br label %90

31:                                               ; preds = %27
  %32 = add nuw nsw i32 %.019, 1
  %33 = invoke noundef i32 @_ZN6icu_7710UCharsTrie16nextForCodePointEi(ptr noundef nonnull align 8 dereferenceable(28) %5, i32 noundef %26)
          to label %34 unwind label %81

34:                                               ; preds = %31
  %35 = icmp sgt i32 %33, 1
  br i1 %35, label %36, label %_ZNK6icu_7710UCharsTrie8getValueEv.exit

36:                                               ; preds = %34
  %37 = load ptr, ptr %20, align 8, !tbaa !79
  %38 = getelementptr inbounds nuw i8, ptr %37, i64 2
  %39 = load i16, ptr %37, align 2, !tbaa !72
  %40 = zext i16 %39 to i32
  %.not.i = icmp sgt i16 %39, -1
  br i1 %.not.i, label %59, label %41

41:                                               ; preds = %36
  %42 = and i32 %40, 32767
  %43 = icmp samesign ult i32 %42, 16384
  br i1 %43, label %_ZNK6icu_7710UCharsTrie8getValueEv.exit, label %44

44:                                               ; preds = %41
  %.not7.i = icmp eq i32 %42, 32767
  br i1 %.not7.i, label %51, label %45

45:                                               ; preds = %44
  %46 = shl nuw nsw i32 %42, 16
  %47 = add nsw i32 %46, -1073741824
  %48 = load i16, ptr %38, align 2, !tbaa !72
  %49 = zext i16 %48 to i32
  %50 = or disjoint i32 %47, %49
  br label %_ZNK6icu_7710UCharsTrie8getValueEv.exit

51:                                               ; preds = %44
  %52 = load i16, ptr %38, align 2, !tbaa !72
  %53 = zext i16 %52 to i32
  %54 = shl nuw i32 %53, 16
  %55 = getelementptr inbounds nuw i8, ptr %37, i64 4
  %56 = load i16, ptr %55, align 2, !tbaa !72
  %57 = zext i16 %56 to i32
  %58 = or disjoint i32 %54, %57
  br label %_ZNK6icu_7710UCharsTrie8getValueEv.exit

59:                                               ; preds = %36
  %60 = icmp samesign ult i16 %39, 16448
  br i1 %60, label %61, label %64

61:                                               ; preds = %59
  %62 = lshr i32 %40, 6
  %63 = add nsw i32 %62, -1
  br label %_ZNK6icu_7710UCharsTrie8getValueEv.exit

64:                                               ; preds = %59
  %65 = icmp samesign ult i16 %39, 32704
  br i1 %65, label %66, label %73

66:                                               ; preds = %64
  %67 = shl nuw nsw i32 %40, 10
  %68 = and i32 %67, 33488896
  %69 = add nsw i32 %68, -16842752
  %70 = load i16, ptr %38, align 2, !tbaa !72
  %71 = zext i16 %70 to i32
  %72 = or disjoint i32 %69, %71
  br label %_ZNK6icu_7710UCharsTrie8getValueEv.exit

73:                                               ; preds = %64
  %74 = load i16, ptr %38, align 2, !tbaa !72
  %75 = zext i16 %74 to i32
  %76 = shl nuw i32 %75, 16
  %77 = getelementptr inbounds nuw i8, ptr %37, i64 4
  %78 = load i16, ptr %77, align 2, !tbaa !72
  %79 = zext i16 %78 to i32
  %80 = or disjoint i32 %76, %79
  br label %_ZNK6icu_7710UCharsTrie8getValueEv.exit

81:                                               ; preds = %31
  %82 = landingpad { ptr, i32 }
          cleanup
  br label %90

_ZNK6icu_7710UCharsTrie8getValueEv.exit:          ; preds = %73, %66, %61, %51, %45, %41, %34
  %.2 = phi i32 [ %.0, %34 ], [ %50, %45 ], [ %58, %51 ], [ %42, %41 ], [ %63, %61 ], [ %72, %66 ], [ %80, %73 ]
  %83 = and i32 %33, 1
  %.not = icmp eq i32 %83, 0
  br i1 %.not, label %select.unfold, label %22

select.unfold:                                    ; preds = %_ZNK6icu_7710UCharsTrie8getValueEv.exit, %27
  %.120.ph = phi i32 [ %.019, %27 ], [ %32, %_ZNK6icu_7710UCharsTrie8getValueEv.exit ]
  %.1.ph = phi i32 [ %.0, %27 ], [ %.2, %_ZNK6icu_7710UCharsTrie8getValueEv.exit ]
  %84 = load ptr, ptr %0, align 8, !tbaa !24
  %85 = getelementptr inbounds nuw i8, ptr %84, i64 96
  %86 = load ptr, ptr %85, align 8
  invoke void %86(ptr noundef nonnull align 8 dereferenceable(389) %0, i32 noundef %.120.ph, ptr noundef nonnull align 4 dereferenceable(4) %3)
          to label %87 unwind label %88

87:                                               ; preds = %select.unfold
  call void @_ZN6icu_7710UCharsTrieD1Ev(ptr noundef nonnull align 8 dereferenceable(28) %5) #21
  call void @llvm.lifetime.end.p0(i64 32, ptr nonnull %5) #21
  ret i32 %.1.ph

88:                                               ; preds = %select.unfold
  %89 = landingpad { ptr, i32 }
          cleanup
  br label %90

90:                                               ; preds = %29, %81, %88
  %.pn29 = phi { ptr, i32 } [ %89, %88 ], [ %82, %81 ], [ %30, %29 ]
  call void @_ZN6icu_7710UCharsTrieD1Ev(ptr noundef nonnull align 8 dereferenceable(28) %5) #21
  call void @llvm.lifetime.end.p0(i64 32, ptr nonnull %5) #21
  resume { ptr, i32 } %.pn29
}